target datalayout = "e-m:e-p270:32:32-p271:32:32-p272:64:64-i64:64-i128:128-f80:128-n8:16:32:64-S128"
target triple = "x86_64-pc-linux-gnu"

%"class.Ipopt::DenseVector" = type { %"class.Ipopt::Vector.base", ptr, ptr, ptr, i8, i8, double }
%"class.Ipopt::Vector.base" = type <{ %"class.Ipopt::TaggedObject", %"class.Ipopt::SmartPtr", %"class.Ipopt::CachedResults", i32, [4 x i8], double, i32, [4 x i8], double, i32, [4 x i8], double, i32, [4 x i8], double, i32, [4 x i8], double, i32, [4 x i8], double, i32, [4 x i8], double, i32, i8 }>
%"class.Ipopt::TaggedObject" = type { %"class.Ipopt::ReferencedObject.base", %"class.Ipopt::Subject", i32, i32 }
%"class.Ipopt::ReferencedObject.base" = type <{ ptr, i32 }>
%"class.Ipopt::Subject" = type { ptr, %"class.std::vector" }
%"class.std::vector" = type { %"struct.std::_Vector_base" }
%"struct.std::_Vector_base" = type { %"struct.std::_Vector_base<Ipopt::Observer *, std::allocator<Ipopt::Observer *>>::_Vector_impl" }
%"struct.std::_Vector_base<Ipopt::Observer *, std::allocator<Ipopt::Observer *>>::_Vector_impl" = type { %"struct.std::_Vector_base<Ipopt::Observer *, std::allocator<Ipopt::Observer *>>::_Vector_impl_data" }
%"struct.std::_Vector_base<Ipopt::Observer *, std::allocator<Ipopt::Observer *>>::_Vector_impl_data" = type { ptr, ptr, ptr }
%"class.Ipopt::SmartPtr" = type { ptr }
%"class.Ipopt::CachedResults" = type { ptr, i32, ptr }
%"class.Ipopt::Vector" = type <{ %"class.Ipopt::TaggedObject", %"class.Ipopt::SmartPtr", %"class.Ipopt::CachedResults", i32, [4 x i8], double, i32, [4 x i8], double, i32, [4 x i8], double, i32, [4 x i8], double, i32, [4 x i8], double, i32, [4 x i8], double, i32, [4 x i8], double, i32, i8, [3 x i8] }>
%"class.Ipopt::VectorSpace" = type { %"class.Ipopt::ReferencedObject.base", i32 }

; Function Attrs: mustprogress uwtable
define linkonce_odr noundef ptr @_ZNK5Ipopt16DenseVectorSpace23AllocateInternalStorageEv(ptr noundef nonnull align 8 dereferenceable(160) %0) #0 comdat align 2 {
  %2 = alloca ptr, align 8
  %3 = alloca ptr, align 8
  store ptr %0, ptr %3, align 8
  %4 = load ptr, ptr %3, align 8
  %5 = call noundef i32 @_ZNK5Ipopt11VectorSpace3DimEv(ptr noundef nonnull align 8 dereferenceable(16) %4)
  %6 = icmp sgt i32 %5, 0
  br i1 %6, label %7, label %15

7:                                                ; preds = %1
  %8 = call noundef i32 @_ZNK5Ipopt11VectorSpace3DimEv(ptr noundef nonnull align 8 dereferenceable(16) %4)
  %9 = sext i32 %8 to i64
  %10 = call { i64, i1 } @llvm.umul.with.overflow.i64(i64 %9, i64 8)
  %11 = extractvalue { i64, i1 } %10, 1
  %12 = extractvalue { i64, i1 } %10, 0
  %13 = select i1 %11, i64 -1, i64 %12
  %14 = call noalias noundef nonnull ptr @_Znam(i64 noundef %13) #14
  store ptr %14, ptr %2, align 8
  br label %16

15:                                               ; preds = %1
  store ptr null, ptr %2, align 8
  br label %16

16:                                               ; preds = %15, %7
  %17 = load ptr, ptr %2, align 8
  ret ptr %17
}

; Function Attrs: mustprogress nounwind uwtable
define linkonce_odr noundef i32 @_ZNK5Ipopt11VectorSpace3DimEv(ptr noundef nonnull align 8 dereferenceable(16) %0) #1 comdat align 2 {
  %2 = alloca ptr, align 8
  store ptr %0, ptr %2, align 8
  %3 = load ptr, ptr %2, align 8
  %4 = getelementptr inbounds %"class.Ipopt::VectorSpace", ptr %3, i32 0, i32 1
  %5 = load i32, ptr %4, align 4
  ret i32 %5
}

; Function Attrs: mustprogress nounwind uwtable
define linkonce_odr noundef ptr @_ZNK5Ipopt8SmartPtrIKNS_11VectorSpaceEEptEv(ptr noundef nonnull align 8 dereferenceable(8) %0) #1 comdat align 2 {
  %2 = alloca ptr, align 8
  store ptr %0, ptr %2, align 8
  %3 = load ptr, ptr %2, align 8
  %4 = getelementptr inbounds %"class.Ipopt::SmartPtr", ptr %3, i32 0, i32 0
  %5 = load ptr, ptr %4, align 8
  ret ptr %5
}

; Function Attrs: mustprogress uwtable
define linkonce_odr noundef ptr @_ZN5Ipopt11DenseVector16values_allocatedEv(ptr noundef nonnull align 8 dereferenceable(248) %0) #0 comdat align 2 {
  %2 = alloca ptr, align 8
  store ptr %0, ptr %2, align 8
  %3 = load ptr, ptr %2, align 8
  %4 = getelementptr inbounds %"class.Ipopt::DenseVector", ptr %3, i32 0, i32 2
  %5 = load ptr, ptr %4, align 8
  %6 = icmp eq ptr %5, null
  br i1 %6, label %7, label %12

7:                                                ; preds = %1
  %8 = getelementptr inbounds %"class.Ipopt::DenseVector", ptr %3, i32 0, i32 1
  %9 = load ptr, ptr %8, align 8
  %10 = call noundef ptr @_ZNK5Ipopt16DenseVectorSpace23AllocateInternalStorageEv(ptr noundef nonnull align 8 dereferenceable(160) %9)
  %11 = getelementptr inbounds %"class.Ipopt::DenseVector", ptr %3, i32 0, i32 2
  store ptr %10, ptr %11, align 8
  br label %12

12:                                               ; preds = %7, %1
  %13 = getelementptr inbounds %"class.Ipopt::DenseVector", ptr %3, i32 0, i32 2
  %14 = load ptr, ptr %13, align 8
  ret ptr %14
}

; Function Attrs: mustprogress uwtable
define linkonce_odr noundef i32 @_ZNK5Ipopt6Vector3DimEv(ptr noundef nonnull align 8 dereferenceable(205) %0) #0 comdat align 2 {
  %2 = alloca ptr, align 8
  store ptr %0, ptr %2, align 8
  %3 = load ptr, ptr %2, align 8
  %4 = getelementptr inbounds %"class.Ipopt::Vector", ptr %3, i32 0, i32 1
  %5 = call noundef ptr @_ZNK5Ipopt8SmartPtrIKNS_11VectorSpaceEEptEv(ptr noundef nonnull align 8 dereferenceable(8) %4)
  %6 = call noundef i32 @_ZNK5Ipopt11VectorSpace3DimEv(ptr noundef nonnull align 8 dereferenceable(16) %5)
  ret i32 %6
}

; Function Attrs: mustprogress uwtable
define void @_ZN5Ipopt11DenseVector23ElementWiseMultiplyImplERKNS_6VectorE(ptr noundef nonnull align 8 dereferenceable(248) %0, ptr noundef nonnull align 8 dereferenceable(205) %1) unnamed_addr #0 align 2 {
  %3 = alloca ptr, align 8
  %4 = alloca ptr, align 8
  %5 = alloca ptr, align 8
  %6 = alloca ptr, align 8
  %7 = alloca ptr, align 8
  %8 = alloca i32, align 4
  %9 = alloca i32, align 4
  %10 = alloca i32, align 4
  store ptr %0, ptr %3, align 8
  store ptr %1, ptr %4, align 8
  %11 = load ptr, ptr %3, align 8
  %12 = load ptr, ptr %4, align 8
  store ptr %12, ptr %5, align 8
  %13 = load ptr, ptr %5, align 8
  %14 = getelementptr inbounds %"class.Ipopt::DenseVector", ptr %13, i32 0, i32 2
  %15 = load ptr, ptr %14, align 8
  store ptr %15, ptr %6, align 8
  %16 = call noundef i32 @_ZNK5Ipopt6Vector3DimEv(ptr noundef nonnull align 8 dereferenceable(205) %11)
  %17 = icmp eq i32 %16, 0
  br i1 %17, label %18, label %19

18:                                               ; preds = %2
  br label %114

19:                                               ; preds = %2
  %20 = getelementptr inbounds %"class.Ipopt::DenseVector", ptr %11, i32 0, i32 5
  %21 = load i8, ptr %20, align 1
  %22 = trunc i8 %21 to i1
  br i1 %22, label %23, label %60

23:                                               ; preds = %19
  %24 = load ptr, ptr %5, align 8
  %25 = getelementptr inbounds %"class.Ipopt::DenseVector", ptr %24, i32 0, i32 5
  %26 = load i8, ptr %25, align 1
  %27 = trunc i8 %26 to i1
  br i1 %27, label %28, label %35

28:                                               ; preds = %23
  %29 = load ptr, ptr %5, align 8
  %30 = getelementptr inbounds %"class.Ipopt::DenseVector", ptr %29, i32 0, i32 6
  %31 = load double, ptr %30, align 8
  %32 = getelementptr inbounds %"class.Ipopt::DenseVector", ptr %11, i32 0, i32 6
  %33 = load double, ptr %32, align 8
  %34 = fmul double %33, %31
  store double %34, ptr %32, align 8
  br label %59

35:                                               ; preds = %23
  %36 = getelementptr inbounds %"class.Ipopt::DenseVector", ptr %11, i32 0, i32 5
  store i8 0, ptr %36, align 1
  %37 = call noundef ptr @_ZN5Ipopt11DenseVector16values_allocatedEv(ptr noundef nonnull align 8 dereferenceable(248) %11)
  store ptr %37, ptr %7, align 8
  store i32 0, ptr %8, align 4
  br label %38

38:                                               ; preds = %55, %35
  %39 = load i32, ptr %8, align 4
  %40 = call noundef i32 @_ZNK5Ipopt6Vector3DimEv(ptr noundef nonnull align 8 dereferenceable(205) %11)
  %41 = icmp slt i32 %39, %40
  br i1 %41, label %42, label %58

42:                                               ; preds = %38
  %43 = getelementptr inbounds %"class.Ipopt::DenseVector", ptr %11, i32 0, i32 6
  %44 = load double, ptr %43, align 8
  %45 = load ptr, ptr %6, align 8
  %46 = load i32, ptr %8, align 4
  %47 = sext i32 %46 to i64
  %48 = getelementptr inbounds double, ptr %45, i64 %47
  %49 = load double, ptr %48, align 8
  %50 = fmul double %44, %49
  %51 = load ptr, ptr %7, align 8
  %52 = load i32, ptr %8, align 4
  %53 = sext i32 %52 to i64
  %54 = getelementptr inbounds double, ptr %51, i64 %53
  store double %50, ptr %54, align 8
  br label %55

55:                                               ; preds = %42
  %56 = load i32, ptr %8, align 4
  %57 = add nsw i32 %56, 1
  store i32 %57, ptr %8, align 4
  br label %38, !llvm.loop !9

58:                                               ; preds = %38
  br label %59

59:                                               ; preds = %58, %28
  br label %114

60:                                               ; preds = %19
  %61 = load ptr, ptr %5, align 8
  %62 = getelementptr inbounds %"class.Ipopt::DenseVector", ptr %61, i32 0, i32 5
  %63 = load i8, ptr %62, align 1
  %64 = trunc i8 %63 to i1
  br i1 %64, label %65, label %91

65:                                               ; preds = %60
  %66 = load ptr, ptr %5, align 8
  %67 = getelementptr inbounds %"class.Ipopt::DenseVector", ptr %66, i32 0, i32 6
  %68 = load double, ptr %67, align 8
  %69 = fcmp une double %68, 1.000000e+00
  br i1 %69, label %70, label %90

70:                                               ; preds = %65
  store i32 0, ptr %9, align 4
  br label %71

71:                                               ; preds = %86, %70
  %72 = load i32, ptr %9, align 4
  %73 = call noundef i32 @_ZNK5Ipopt6Vector3DimEv(ptr noundef nonnull align 8 dereferenceable(205) %11)
  %74 = icmp slt i32 %72, %73
  br i1 %74, label %75, label %89

75:                                               ; preds = %71
  %76 = load ptr, ptr %5, align 8
  %77 = getelementptr inbounds %"class.Ipopt::DenseVector", ptr %76, i32 0, i32 6
  %78 = load double, ptr %77, align 8
  %79 = getelementptr inbounds %"class.Ipopt::DenseVector", ptr %11, i32 0, i32 2
  %80 = load ptr, ptr %79, align 8
  %81 = load i32, ptr %9, align 4
  %82 = sext i32 %81 to i64
  %83 = getelementptr inbounds double, ptr %80, i64 %82
  %84 = load double, ptr %83, align 8
  %85 = fmul double %84, %78
  store double %85, ptr %83, align 8
  br label %86

86:                                               ; preds = %75
  %87 = load i32, ptr %9, align 4
  %88 = add nsw i32 %87, 1
  store i32 %88, ptr %9, align 4
  br label %71, !llvm.loop !10

89:                                               ; preds = %71
  br label %90

90:                                               ; preds = %89, %65
  br label %113

91:                                               ; preds = %60
  store i32 0, ptr %10, align 4
  br label %92

92:                                               ; preds = %109, %91
  %93 = load i32, ptr %10, align 4
  %94 = call noundef i32 @_ZNK5Ipopt6Vector3DimEv(ptr noundef nonnull align 8 dereferenceable(205) %11)
  %95 = icmp slt i32 %93, %94
  br i1 %95, label %96, label %112

96:                                               ; preds = %92
  %97 = load ptr, ptr %6, align 8
  %98 = load i32, ptr %10, align 4
  %99 = sext i32 %98 to i64
  %100 = getelementptr inbounds double, ptr %97, i64 %99
  %101 = load double, ptr %100, align 8
  %102 = getelementptr inbounds %"class.Ipopt::DenseVector", ptr %11, i32 0, i32 2
  %103 = load ptr, ptr %102, align 8
  %104 = load i32, ptr %10, align 4
  %105 = sext i32 %104 to i64
  %106 = getelementptr inbounds double, ptr %103, i64 %105
  %107 = load double, ptr %106, align 8
  %108 = fmul double %107, %101
  store double %108, ptr %106, align 8
  br label %109

109:                                              ; preds = %96
  %110 = load i32, ptr %10, align 4
  %111 = add nsw i32 %110, 1
  store i32 %111, ptr %10, align 4
  br label %92, !llvm.loop !11

112:                                              ; preds = %92
  br label %113

113:                                              ; preds = %112, %90
  br label %114

114:                                              ; preds = %113, %59, %18
  ret void
}