; Function Attrs: mustprogress uwtable
define void @_ZN5Ipopt11DenseVector23ElementWiseMultiplyImplERKNS_6VectorE(ptr nocapture noundef nonnull align 8 dereferenceable(248) %0, ptr nocapture noundef nonnull readonly align 8 dereferenceable(205) %1) unnamed_addr #0 align 2 {
  %3 = getelementptr inbounds i8, ptr %1, i64 216
  %4 = load ptr, ptr %3, align 8
  %5 = getelementptr inbounds i8, ptr %0, i64 56
  %6 = load ptr, ptr %5, align 8
  %7 = getelementptr inbounds i8, ptr %6, i64 12
  %8 = load i32, ptr %7, align 4
  %9 = icmp eq i32 %8, 0
  br i1 %9, label %.loopexit, label %10

10:                                               ; preds = %2
  %11 = getelementptr inbounds i8, ptr %0, i64 233
  %12 = load i8, ptr %11, align 1
  %13 = and i8 %12, 1
  %.not = icmp eq i8 %13, 0
  %14 = getelementptr inbounds i8, ptr %1, i64 233
  %15 = load i8, ptr %14, align 1
  %16 = and i8 %15, 1
  %.not23 = icmp eq i8 %16, 0
  br i1 %.not, label %53, label %17

17:                                               ; preds = %10
  br i1 %.not23, label %24, label %18

18:                                               ; preds = %17
  %19 = getelementptr inbounds i8, ptr %1, i64 240
  %20 = load double, ptr %19, align 8
  %21 = getelementptr inbounds i8, ptr %0, i64 240
  %22 = load double, ptr %21, align 8
  %23 = fmul double %20, %22
  store double %23, ptr %21, align 8
  br label %.loopexit

24:                                               ; preds = %17
  store i8 0, ptr %11, align 1
  %25 = getelementptr inbounds i8, ptr %0, i64 216
  %26 = load ptr, ptr %25, align 8
  %27 = icmp eq ptr %26, null
  br i1 %27, label %28, label %_ZN5Ipopt11DenseVector16values_allocatedEv.exit

28:                                               ; preds = %24
  %29 = getelementptr inbounds i8, ptr %0, i64 208
  %30 = load ptr, ptr %29, align 8
  %31 = getelementptr inbounds i8, ptr %30, i64 12
  %32 = load i32, ptr %31, align 4
  %33 = icmp sgt i32 %32, 0
  br i1 %33, label %34, label %_ZNK5Ipopt16DenseVectorSpace23AllocateInternalStorageEv.exit.i

34:                                               ; preds = %28
  %35 = zext nneg i32 %32 to i64
  %36 = shl nuw nsw i64 %35, 3
  %37 = tail call noalias noundef nonnull ptr @_Znam(i64 noundef %36) #18
  br label %_ZNK5Ipopt16DenseVectorSpace23AllocateInternalStorageEv.exit.i

_ZNK5Ipopt16DenseVectorSpace23AllocateInternalStorageEv.exit.i: ; preds = %34, %28
  %.0.i.i = phi ptr [ %37, %34 ], [ null, %28 ]
  store ptr %.0.i.i, ptr %25, align 8
  br label %_ZN5Ipopt11DenseVector16values_allocatedEv.exit

_ZN5Ipopt11DenseVector16values_allocatedEv.exit:  ; preds = %24, %_ZNK5Ipopt16DenseVectorSpace23AllocateInternalStorageEv.exit.i
  %38 = phi ptr [ %.0.i.i, %_ZNK5Ipopt16DenseVectorSpace23AllocateInternalStorageEv.exit.i ], [ %26, %24 ]
  %39 = load i32, ptr %7, align 4
  %40 = icmp sgt i32 %39, 0
  br i1 %40, label %.lr.ph, label %.loopexit

.lr.ph:                                           ; preds = %_ZN5Ipopt11DenseVector16values_allocatedEv.exit
  %41 = getelementptr inbounds i8, ptr %0, i64 240
  br label %42

42:                                               ; preds = %.lr.ph, %42
  %indvars.iv = phi i64 [ 0, %.lr.ph ], [ %indvars.iv.next, %42 ]
  %43 = load double, ptr %41, align 8
  %44 = getelementptr inbounds double, ptr %4, i64 %indvars.iv
  %45 = load double, ptr %44, align 8
  %46 = fmul double %43, %45
  %47 = getelementptr inbounds double, ptr %38, i64 %indvars.iv
  store double %46, ptr %47, align 8
  %indvars.iv.next = add nuw nsw i64 %indvars.iv, 1
  %48 = load ptr, ptr %5, align 8
  %49 = getelementptr inbounds i8, ptr %48, i64 12
  %50 = load i32, ptr %49, align 4
  %51 = sext i32 %50 to i64
  %52 = icmp slt i64 %indvars.iv.next, %51
  br i1 %52, label %42, label %.loopexit, !llvm.loop !11

53:                                               ; preds = %10
  br i1 %.not23, label %.preheader, label %56

.preheader:                                       ; preds = %53
  %54 = icmp sgt i32 %8, 0
  br i1 %54, label %.lr.ph32, label %.loopexit

.lr.ph32:                                         ; preds = %.preheader
  %55 = getelementptr inbounds i8, ptr %0, i64 216
  br label %73

56:                                               ; preds = %53
  %57 = getelementptr inbounds i8, ptr %1, i64 240
  %58 = load double, ptr %57, align 8
  %59 = fcmp une double %58, 1.000000e+00
  %60 = icmp sgt i32 %8, 0
  %or.cond = and i1 %59, %60
  br i1 %or.cond, label %.lr.ph30, label %.loopexit

.lr.ph30:                                         ; preds = %56
  %61 = getelementptr inbounds i8, ptr %0, i64 216
  br label %62

62:                                               ; preds = %.lr.ph30, %62
  %indvars.iv36 = phi i64 [ 0, %.lr.ph30 ], [ %indvars.iv.next37, %62 ]
  %63 = load double, ptr %57, align 8
  %64 = load ptr, ptr %61, align 8
  %65 = getelementptr inbounds double, ptr %64, i64 %indvars.iv36
  %66 = load double, ptr %65, align 8
  %67 = fmul double %63, %66
  store double %67, ptr %65, align 8
  %indvars.iv.next37 = add nuw nsw i64 %indvars.iv36, 1
  %68 = load ptr, ptr %5, align 8
  %69 = getelementptr inbounds i8, ptr %68, i64 12
  %70 = load i32, ptr %69, align 4
  %71 = sext i32 %70 to i64
  %72 = icmp slt i64 %indvars.iv.next37, %71
  br i1 %72, label %62, label %.loopexit, !llvm.loop !12

73:                                               ; preds = %.lr.ph32, %73
  %indvars.iv39 = phi i64 [ 0, %.lr.ph32 ], [ %indvars.iv.next40, %73 ]
  %74 = getelementptr inbounds double, ptr %4, i64 %indvars.iv39
  %75 = load double, ptr %74, align 8
  %76 = load ptr, ptr %55, align 8
  %77 = getelementptr inbounds double, ptr %76, i64 %indvars.iv39
  %78 = load double, ptr %77, align 8
  %79 = fmul double %75, %78
  store double %79, ptr %77, align 8
  %indvars.iv.next40 = add nuw nsw i64 %indvars.iv39, 1
  %80 = load ptr, ptr %5, align 8
  %81 = getelementptr inbounds i8, ptr %80, i64 12
  %82 = load i32, ptr %81, align 4
  %83 = sext i32 %82 to i64
  %84 = icmp slt i64 %indvars.iv.next40, %83
  br i1 %84, label %73, label %.loopexit, !llvm.loop !13

.loopexit:                                        ; preds = %42, %62, %73, %_ZN5Ipopt11DenseVector16values_allocatedEv.exit, %.preheader, %56, %18, %2
  ret void
}